; Function Attrs: mustprogress nofree nounwind uwtable
define hidden noundef ptr @_ZN2cv2fs12encodeFormatEiPc(i32 noundef %0, ptr noundef writeonly %1) local_unnamed_addr #12 {
  %3 = icmp eq i32 %0, 56
  br i1 %3, label %_ZN2cv2fs12encodeFormatEiPcm.exit, label %4

4:                                                ; preds = %2
  %5 = lshr i32 %0, 3
  %6 = and i32 %5, 511
  %7 = add nuw nsw i32 %6, 1
  %8 = and i32 %0, 7
  %9 = zext nneg i32 %8 to i64
  %10 = getelementptr inbounds nuw [9 x i8], ptr @_ZN2cv2fsL7symbolsE, i64 0, i64 %9
  %11 = load i8, ptr %10, align 1, !tbaa !5
  %12 = sext i8 %11 to i32
  br label %_ZN2cv2fs12encodeFormatEiPcm.exit

_ZN2cv2fs12encodeFormatEiPcm.exit:                ; preds = %2, %4
  %13 = phi i32 [ 1, %2 ], [ %7, %4 ]
  %14 = phi i32 [ 114, %2 ], [ %12, %4 ]
  %15 = tail call i32 (ptr, i64, ptr, ...) @snprintf(ptr noundef nonnull dereferenceable(1) %1, i64 noundef 22, ptr noundef nonnull @.str.9, i32 noundef %13, i32 noundef %14) #41
  %16 = icmp eq i32 %13, 1
  %17 = zext i1 %16 to i64
  %18 = getelementptr inbounds nuw i8, ptr %1, i64 %17
  ret ptr %18
}